target datalayout = "e-m:e-p270:32:32-p271:32:32-p272:64:64-i64:64-i128:128-f80:128-n8:16:32:64-S128"
target triple = "x86_64-pc-linux-gnu"

%struct.GenContext_ = type { i8, ptr, ptr, ptr, ptr, ptr, ptr, ptr, ptr, ptr, ptr, ptr, ptr, ptr, ptr, ptr, ptr, ptr, ptr, ptr, ptr, ptr, ptr, ptr, ptr, ptr, ptr, ptr, ptr, ptr, ptr, ptr, ptr, %struct.anon.85, i32, i32, %struct.DebugContext, ptr, ptr, ptr, %struct.BEValue, i8, %union.SourceSpan, ptr, ptr, ptr, ptr }
%struct.anon.85 = type { ptr, ptr, ptr }
%struct.DebugContext = type { i16, ptr, ptr, %struct.DebugFile_, ptr, ptr, ptr, ptr }
%struct.DebugFile_ = type { i16, ptr }
%struct.BEValue = type { i8, i32, ptr, ptr, ptr }
%union.SourceSpan = type { i64 }
%struct.Decl_ = type { ptr, ptr, %union.SourceSpan, i64, %union.anon, i32, %union.anon.0, i64, ptr, ptr, ptr, %union.anon.1 }
%union.anon = type { ptr }
%union.anon.0 = type { i16 }
%union.anon.1 = type { %struct.FuncDecl }
%struct.FuncDecl = type { i32, [4 x i8], %struct.Signature_, i32, i32, %union.anon.8 }
%struct.Signature_ = type <{ %struct.CalleeAttributes, i16, i8, i32, i32, [4 x i8], ptr }>
%struct.CalleeAttributes = type { i8 }
%union.anon.8 = type { %struct.anon.9 }
%struct.anon.9 = type { i16, %union.anon.10 }
%union.anon.10 = type { ptr }
%struct.anon = type { i16, i8, i8, i32 }
%struct.VarDecl_ = type { i32, i32, %union.anon.14, %union.anon.15 }
%union.anon.14 = type { ptr }
%union.anon.15 = type { %struct.anon.16 }
%struct.anon.16 = type { ptr, %union.SourceSpan }
%struct.anon.17 = type { ptr, %union.anon.18 }
%union.anon.18 = type { ptr }

; Function Attrs: nounwind uwtable
define dso_local ptr @llvm_get_debug_type(ptr noundef %0, ptr noundef %1) #0 {
  %3 = alloca ptr, align 8
  %4 = alloca ptr, align 8
  store ptr %0, ptr %3, align 8
  store ptr %1, ptr %4, align 8
  %5 = load ptr, ptr %3, align 8
  %6 = load ptr, ptr %4, align 8
  %7 = load ptr, ptr %3, align 8
  %8 = getelementptr inbounds %struct.GenContext_, ptr %7, i32 0, i32 36
  %9 = getelementptr inbounds %struct.DebugContext, ptr %8, i32 0, i32 3
  %10 = getelementptr inbounds %struct.DebugFile_, ptr %9, i32 0, i32 1
  %11 = load ptr, ptr %10, align 8
  %12 = call ptr @llvm_get_debug_type_internal(ptr noundef %5, ptr noundef %6, ptr noundef %11)
  ret ptr %12
}

; Function Attrs: nounwind uwtable
define dso_local void @llvm_emit_debug_global_var(ptr noundef %0, ptr noundef %1) #0 {
  %3 = alloca ptr, align 8
  %4 = alloca ptr, align 8
  %5 = alloca %union.SourceSpan, align 8
  store ptr %0, ptr %3, align 8
  store ptr %1, ptr %4, align 8
  %6 = load ptr, ptr %4, align 8
  %7 = getelementptr inbounds %struct.Decl_, ptr %6, i32 0, i32 2
  call void @llvm.memcpy.p0.p0.i64(ptr align 8 %5, ptr align 8 %7, i64 8, i1 false)
  %8 = load ptr, ptr %3, align 8
  %9 = getelementptr inbounds %struct.GenContext_, ptr %8, i32 0, i32 36
  %10 = getelementptr inbounds %struct.DebugContext, ptr %9, i32 0, i32 1
  %11 = load ptr, ptr %10, align 8
  %12 = load ptr, ptr %3, align 8
  %13 = getelementptr inbounds %struct.GenContext_, ptr %12, i32 0, i32 36
  %14 = getelementptr inbounds %struct.DebugContext, ptr %13, i32 0, i32 3
  %15 = getelementptr inbounds %struct.DebugFile_, ptr %14, i32 0, i32 1
  %16 = load ptr, ptr %15, align 8
  %17 = load ptr, ptr %4, align 8
  %18 = getelementptr inbounds %struct.Decl_, ptr %17, i32 0, i32 0
  %19 = load ptr, ptr %18, align 8
  %20 = load ptr, ptr %4, align 8
  %21 = getelementptr inbounds %struct.Decl_, ptr %20, i32 0, i32 0
  %22 = load ptr, ptr %21, align 8
  %23 = call i64 @strlen(ptr noundef %22) #5
  %24 = load ptr, ptr %4, align 8
  %25 = getelementptr inbounds %struct.Decl_, ptr %24, i32 0, i32 1
  %26 = load ptr, ptr %25, align 8
  %27 = load ptr, ptr %4, align 8
  %28 = getelementptr inbounds %struct.Decl_, ptr %27, i32 0, i32 1
  %29 = load ptr, ptr %28, align 8
  %30 = call i64 @strlen(ptr noundef %29) #5
  %31 = load ptr, ptr %3, align 8
  %32 = getelementptr inbounds %struct.GenContext_, ptr %31, i32 0, i32 36
  %33 = getelementptr inbounds %struct.DebugContext, ptr %32, i32 0, i32 3
  %34 = getelementptr inbounds %struct.DebugFile_, ptr %33, i32 0, i32 1
  %35 = load ptr, ptr %34, align 8
  %36 = getelementptr inbounds %struct.anon, ptr %5, i32 0, i32 3
  %37 = load i32, ptr %36, align 4
  %38 = icmp ne i32 %37, 0
  br i1 %38, label %39, label %42

39:                                               ; preds = %2
  %40 = getelementptr inbounds %struct.anon, ptr %5, i32 0, i32 3
  %41 = load i32, ptr %40, align 4
  br label %43

42:                                               ; preds = %2
  br label %43

43:                                               ; preds = %42, %39
  %44 = phi i32 [ %41, %39 ], [ 1, %42 ]
  %45 = load ptr, ptr %3, align 8
  %46 = load ptr, ptr %4, align 8
  %47 = getelementptr inbounds %struct.Decl_, ptr %46, i32 0, i32 10
  %48 = load ptr, ptr %47, align 8
  %49 = call ptr @llvm_get_debug_type(ptr noundef %45, ptr noundef %48)
  %50 = load ptr, ptr %4, align 8
  %51 = call zeroext i1 @decl_is_local(ptr noundef %50)
  %52 = zext i1 %51 to i32
  %53 = load ptr, ptr %3, align 8
  %54 = getelementptr inbounds %struct.GenContext_, ptr %53, i32 0, i32 36
  %55 = getelementptr inbounds %struct.DebugContext, ptr %54, i32 0, i32 1
  %56 = load ptr, ptr %55, align 8
  %57 = call ptr @LLVMDIBuilderCreateExpression(ptr noundef %56, ptr noundef null, i64 noundef 0)
  %58 = load ptr, ptr %4, align 8
  %59 = getelementptr inbounds %struct.Decl_, ptr %58, i32 0, i32 5
  %60 = load i32, ptr %59, align 8
  %61 = call ptr @LLVMDIBuilderCreateGlobalVariableExpression(ptr noundef %11, ptr noundef %16, ptr noundef %19, i64 noundef %23, ptr noundef %26, i64 noundef %30, ptr noundef %35, i32 noundef %44, ptr noundef %49, i32 noundef %52, ptr noundef %57, ptr noundef null, i32 noundef %60)
  %62 = load ptr, ptr %4, align 8
  %63 = getelementptr inbounds %struct.Decl_, ptr %62, i32 0, i32 11
  %64 = getelementptr inbounds %struct.VarDecl_, ptr %63, i32 0, i32 3
  %65 = getelementptr inbounds %struct.anon.17, ptr %64, i32 0, i32 0
  store ptr %61, ptr %65, align 8
  %66 = load ptr, ptr %3, align 8
  %67 = load ptr, ptr %4, align 8
  %68 = call ptr @llvm_get_ref(ptr noundef %66, ptr noundef %67)
  %69 = load ptr, ptr %4, align 8
  %70 = getelementptr inbounds %struct.Decl_, ptr %69, i32 0, i32 11
  %71 = getelementptr inbounds %struct.VarDecl_, ptr %70, i32 0, i32 3
  %72 = getelementptr inbounds %struct.anon.17, ptr %71, i32 0, i32 0
  %73 = load ptr, ptr %72, align 8
  call void @LLVMGlobalSetMetadata(ptr noundef %68, i32 noundef 0, ptr noundef %73)
  ret void
}