; Function Attrs: nounwind uwtable
define dso_local void @llvm_emit_debug_global_var(ptr noundef %0, ptr noundef %1) local_unnamed_addr #0 {
  %.sroa.1.0..sroa_idx = getelementptr inbounds i8, ptr %1, i64 20
  %.sroa.1.0.copyload = load i32, ptr %.sroa.1.0..sroa_idx, align 4
  %3 = getelementptr inbounds i8, ptr %0, i64 304
  %4 = load ptr, ptr %3, align 8
  %5 = getelementptr inbounds i8, ptr %0, i64 328
  %6 = load ptr, ptr %5, align 8
  %7 = load ptr, ptr %1, align 8
  %8 = tail call i64 @strlen(ptr noundef nonnull dereferenceable(1) %7) #9
  %9 = getelementptr inbounds i8, ptr %1, i64 8
  %10 = load ptr, ptr %9, align 8
  %11 = tail call i64 @strlen(ptr noundef nonnull dereferenceable(1) %10) #9
  %12 = tail call i32 @llvm.umax.i32(i32 %.sroa.1.0.copyload, i32 1)
  %13 = getelementptr inbounds i8, ptr %1, i64 72
  %14 = load ptr, ptr %13, align 8
  %15 = tail call fastcc ptr @llvm_get_debug_type_internal(ptr noundef %0, ptr noundef %14, ptr noundef %6)
  %16 = tail call zeroext i1 @decl_is_local(ptr noundef nonnull %1) #8
  %17 = zext i1 %16 to i32
  %18 = load ptr, ptr %3, align 8
  %19 = tail call ptr @LLVMDIBuilderCreateExpression(ptr noundef %18, ptr noundef null, i64 noundef 0) #8
  %20 = getelementptr inbounds i8, ptr %1, i64 40
  %21 = load i32, ptr %20, align 8
  %22 = tail call ptr @LLVMDIBuilderCreateGlobalVariableExpression(ptr noundef %4, ptr noundef %6, ptr noundef %7, i64 noundef %8, ptr noundef %10, i64 noundef %11, ptr noundef %6, i32 noundef %12, ptr noundef %15, i32 noundef %17, ptr noundef %19, ptr noundef null, i32 noundef %21) #8
  %23 = getelementptr inbounds i8, ptr %1, i64 96
  store ptr %22, ptr %23, align 8
  %24 = tail call ptr @llvm_get_ref(ptr noundef %0, ptr noundef nonnull %1) #8
  %25 = load ptr, ptr %23, align 8
  tail call void @LLVMGlobalSetMetadata(ptr noundef %24, i32 noundef 0, ptr noundef %25) #8
  ret void
}